ccopy_reg
_reconstructor
p1
(cnupic.frameworks.opf.htm_prediction_model
HTMPredictionModel
p2
c__builtin__
object
p3
NtRp4
(dp5
S'_HTMPredictionModel__finishedLearning'
p6
I00
sS'_predictedFieldIdx'
p7
NsS'_minLikelihoodThreshold'
p8
F0.0001
sS'_Model__inferenceType'
p9
S'TemporalAnomaly'
p10
sS'_HTMPredictionModel__spLearningEnabled'
p11
I01
sS'_Model__inferenceArgs'
p12
(dp13
S'predictedField'
p14
S'[CPU:0]Intrpt'
p15
ssS'_netInfo'
p16
g1
(cnupic.frameworks.opf.htm_prediction_model
NetworkInfo
p17
g3
NtRp18
(dp19
S'net'
p20
NsS'statsCollectors'
p21
(lp22
sbsS'_hasCL'
p23
I00
sS'_hasSP'
p24
I01
sS'_classifierInputEncoder'
p25
NsS'_Model__learningEnabled'
p26
I01
sS'_Model__inferenceEnabled'
p27
I01
sS'_HTMPredictionModel__numRunCalls'
p28
I0
sS'_HTMPredictionModel__trainSPNetOnlyIfRequested'
p29
I00
sS'_maxPredictionsPerStep'
p30
I8
sS'_HTMPredictionModel__tpLearningEnabled'
p31
I01
sS'_input'
p32
NsS'_HTMPredictionModel__restoringFromV1'
p33
I00
sS'_numPredictions'
p34
I0
sS'_predictedFieldName'
p35
NsS'_hasTP'
p36
I01
sS'_numFields'
p37
Nsb.